; ModuleID = '24/1587.c'
source_filename = "24/1587.c"
target datalayout = "e-m:e-p270:32:32-p271:32:32-p272:64:64-i64:64-f80:128-n8:16:32:64-S128"
target triple = "x86_64-pc-linux-gnu"

; Function Attrs: noinline nounwind uwtable
define dso_local i32 @main(i32 %0, i8** %1) #0 {
  %3 = alloca i32, align 4
  %4 = alloca i32, align 4
  %5 = alloca i8**, align 8
  %6 = alloca [2000 x i8], align 16
  %7 = alloca [200 x i32], align 16
  %8 = alloca [200 x [100 x i8]], align 16
  %9 = alloca i32, align 4
  %10 = alloca i32, align 4
  %11 = alloca i32, align 4
  %12 = alloca i32, align 4
  %13 = alloca i32, align 4
  %14 = alloca i32, align 4
  %15 = alloca i32, align 4
  %16 = alloca i32, align 4
  store i32 0, i32* %3, align 4
  store i32 %0, i32* %4, align 4
  store i8** %1, i8*** %5, align 8
  %17 = bitcast [200 x i32]* %7 to i8*
  call void @llvm.memset.p0i8.i64(i8* align 16 %17, i8 0, i64 800, i1 false)
  store i32 0, i32* %9, align 4
  store i32 0, i32* %10, align 4
  store i32 0, i32* %11, align 4
  %18 = getelementptr inbounds [2000 x i8], [2000 x i8]* %6, i64 0, i64 0
  %19 = call i32 (i8*, ...) bitcast (i32 (...)* @gets to i32 (i8*, ...)*)(i8* %18)
  %20 = getelementptr inbounds [2000 x i8], [2000 x i8]* %6, i64 0, i64 0
  %21 = call i64 @strlen(i8* %20) #4
  %22 = trunc i64 %21 to i32
  store i32 %22, i32* %15, align 4
  store i32 0, i32* %12, align 4
  br label %23

23:                                               ; preds = %83, %2
  %24 = load i32, i32* %12, align 4
  %25 = load i32, i32* %15, align 4
  %26 = icmp sle i32 %24, %25
  br i1 %26, label %27, label %86

27:                                               ; preds = %23
  %28 = load i32, i32* %12, align 4
  %29 = sext i32 %28 to i64
  %30 = getelementptr inbounds [2000 x i8], [2000 x i8]* %6, i64 0, i64 %29
  %31 = load i8, i8* %30, align 1
  %32 = load i32, i32* %9, align 4
  %33 = sext i32 %32 to i64
  %34 = getelementptr inbounds [200 x [100 x i8]], [200 x [100 x i8]]* %8, i64 0, i64 %33
  %35 = load i32, i32* %11, align 4
  %36 = sext i32 %35 to i64
  %37 = getelementptr inbounds [100 x i8], [100 x i8]* %34, i64 0, i64 %36
  store i8 %31, i8* %37, align 1
  %38 = load i32, i32* %9, align 4
  %39 = sext i32 %38 to i64
  %40 = getelementptr inbounds [200 x [100 x i8]], [200 x [100 x i8]]* %8, i64 0, i64 %39
  %41 = load i32, i32* %11, align 4
  %42 = sext i32 %41 to i64
  %43 = getelementptr inbounds [100 x i8], [100 x i8]* %40, i64 0, i64 %42
  %44 = load i8, i8* %43, align 1
  %45 = sext i8 %44 to i32
  %46 = icmp eq i32 %45, 32
  br i1 %46, label %67, label %47

47:                                               ; preds = %27
  %48 = load i32, i32* %9, align 4
  %49 = sext i32 %48 to i64
  %50 = getelementptr inbounds [200 x [100 x i8]], [200 x [100 x i8]]* %8, i64 0, i64 %49
  %51 = load i32, i32* %11, align 4
  %52 = sext i32 %51 to i64
  %53 = getelementptr inbounds [100 x i8], [100 x i8]* %50, i64 0, i64 %52
  %54 = load i8, i8* %53, align 1
  %55 = sext i8 %54 to i32
  %56 = icmp eq i32 %55, 44
  br i1 %56, label %67, label %57

57:                                               ; preds = %47
  %58 = load i32, i32* %9, align 4
  %59 = sext i32 %58 to i64
  %60 = getelementptr inbounds [200 x [100 x i8]], [200 x [100 x i8]]* %8, i64 0, i64 %59
  %61 = load i32, i32* %11, align 4
  %62 = sext i32 %61 to i64
  %63 = getelementptr inbounds [100 x i8], [100 x i8]* %60, i64 0, i64 %62
  %64 = load i8, i8* %63, align 1
  %65 = sext i8 %64 to i32
  %66 = icmp eq i32 %65, 0
  br i1 %66, label %67, label %80

67:                                               ; preds = %57, %47, %27
  %68 = load i32, i32* %9, align 4
  %69 = sext i32 %68 to i64
  %70 = getelementptr inbounds [200 x [100 x i8]], [200 x [100 x i8]]* %8, i64 0, i64 %69
  %71 = load i32, i32* %11, align 4
  %72 = sext i32 %71 to i64
  %73 = getelementptr inbounds [100 x i8], [100 x i8]* %70, i64 0, i64 %72
  store i8 0, i8* %73, align 1
  %74 = load i32, i32* %11, align 4
  %75 = load i32, i32* %9, align 4
  %76 = sext i32 %75 to i64
  %77 = getelementptr inbounds [200 x i32], [200 x i32]* %7, i64 0, i64 %76
  store i32 %74, i32* %77, align 4
  %78 = load i32, i32* %9, align 4
  %79 = add nsw i32 %78, 1
  store i32 %79, i32* %9, align 4
  store i32 -1, i32* %11, align 4
  br label %80

80:                                               ; preds = %67, %57
  %81 = load i32, i32* %11, align 4
  %82 = add nsw i32 %81, 1
  store i32 %82, i32* %11, align 4
  br label %83

83:                                               ; preds = %80
  %84 = load i32, i32* %12, align 4
  %85 = add nsw i32 %84, 1
  store i32 %85, i32* %12, align 4
  br label %23

86:                                               ; preds = %23
  %87 = load i32, i32* %9, align 4
  store i32 %87, i32* %16, align 4
  store i32 0, i32* %13, align 4
  store i32 0, i32* %14, align 4
  store i32 1, i32* %9, align 4
  br label %88

88:                                               ; preds = %123, %86
  %89 = load i32, i32* %9, align 4
  %90 = load i32, i32* %16, align 4
  %91 = icmp slt i32 %89, %90
  br i1 %91, label %92, label %126

92:                                               ; preds = %88
  %93 = load i32, i32* %13, align 4
  %94 = sext i32 %93 to i64
  %95 = getelementptr inbounds [200 x i32], [200 x i32]* %7, i64 0, i64 %94
  %96 = load i32, i32* %95, align 4
  %97 = load i32, i32* %9, align 4
  %98 = sext i32 %97 to i64
  %99 = getelementptr inbounds [200 x i32], [200 x i32]* %7, i64 0, i64 %98
  %100 = load i32, i32* %99, align 4
  %101 = icmp slt i32 %96, %100
  br i1 %101, label %102, label %104

102:                                              ; preds = %92
  %103 = load i32, i32* %9, align 4
  store i32 %103, i32* %13, align 4
  br label %104

104:                                              ; preds = %102, %92
  %105 = load i32, i32* %14, align 4
  %106 = sext i32 %105 to i64
  %107 = getelementptr inbounds [200 x i32], [200 x i32]* %7, i64 0, i64 %106
  %108 = load i32, i32* %107, align 4
  %109 = load i32, i32* %9, align 4
  %110 = sext i32 %109 to i64
  %111 = getelementptr inbounds [200 x i32], [200 x i32]* %7, i64 0, i64 %110
  %112 = load i32, i32* %111, align 4
  %113 = icmp sgt i32 %108, %112
  br i1 %113, label %114, label %122

114:                                              ; preds = %104
  %115 = load i32, i32* %9, align 4
  %116 = sext i32 %115 to i64
  %117 = getelementptr inbounds [200 x i32], [200 x i32]* %7, i64 0, i64 %116
  %118 = load i32, i32* %117, align 4
  %119 = icmp sgt i32 %118, 0
  br i1 %119, label %120, label %122

120:                                              ; preds = %114
  %121 = load i32, i32* %9, align 4
  store i32 %121, i32* %14, align 4
  br label %122

122:                                              ; preds = %120, %114, %104
  br label %123

123:                                              ; preds = %122
  %124 = load i32, i32* %9, align 4
  %125 = add nsw i32 %124, 1
  store i32 %125, i32* %9, align 4
  br label %88

126:                                              ; preds = %88
  %127 = load i32, i32* %13, align 4
  %128 = sext i32 %127 to i64
  %129 = getelementptr inbounds [200 x [100 x i8]], [200 x [100 x i8]]* %8, i64 0, i64 %128
  %130 = getelementptr inbounds [100 x i8], [100 x i8]* %129, i64 0, i64 0
  %131 = call i32 @puts(i8* %130)
  %132 = load i32, i32* %14, align 4
  %133 = sext i32 %132 to i64
  %134 = getelementptr inbounds [200 x [100 x i8]], [200 x [100 x i8]]* %8, i64 0, i64 %133
  %135 = getelementptr inbounds [100 x i8], [100 x i8]* %134, i64 0, i64 0
  %136 = call i32 @puts(i8* %135)
  ret i32 0
}

; Function Attrs: argmemonly nounwind willreturn
declare void @llvm.memset.p0i8.i64(i8* nocapture writeonly, i8, i64, i1 immarg) #1

declare dso_local i32 @gets(...) #2

; Function Attrs: nounwind readonly
declare dso_local i64 @strlen(i8*) #3

declare dso_local i32 @puts(i8*) #2


!llvm.module.flags = !{!0}
!llvm.ident = !{!1}

!0 = !{i32 1, !"wchar_size", i32 4}
!1 = !{!"clang version 10.0.0-4ubuntu1 "}
